target datalayout = "e-m:e-p270:32:32-p271:32:32-p272:64:64-i64:64-i128:128-f80:128-n8:16:32:64-S128"
target triple = "x86_64-pc-linux-gnu"

%class.QuickOpen = type <{ ptr, i8, [7 x i8], ptr, ptr, ptr, i64, %class.CryptData, i8, [7 x i8], i64, i64, i64, i64, i64, i64, %class.Array, i64, i64, i8, [7 x i8] }>
%class.CryptData = type { [4 x %"struct.CryptData::KDF3CacheItem"], i32, [4 x i8], [4 x %"struct.CryptData::KDF5CacheItem"], i32, i32, %class.Rijndael, [256 x i32], [256 x i8], [4 x i32], [3 x i8], [4 x i16], [4 x i8] }
%"struct.CryptData::KDF3CacheItem" = type { %class.SecPassword, [8 x i8], [16 x i8], [16 x i8], i8, [7 x i8] }
%class.SecPassword = type <{ %"class.std::vector", i8, [7 x i8] }>
%"class.std::vector" = type { %"struct.std::_Vector_base" }
%"struct.std::_Vector_base" = type { %"struct.std::_Vector_base<wchar_t, std::allocator<wchar_t>>::_Vector_impl" }
%"struct.std::_Vector_base<wchar_t, std::allocator<wchar_t>>::_Vector_impl" = type { %"struct.std::_Vector_base<wchar_t, std::allocator<wchar_t>>::_Vector_impl_data" }
%"struct.std::_Vector_base<wchar_t, std::allocator<wchar_t>>::_Vector_impl_data" = type { ptr, ptr, ptr }
%"struct.CryptData::KDF5CacheItem" = type { %class.SecPassword, [16 x i8], [32 x i8], i32, [32 x i8], [32 x i8], [4 x i8] }
%class.Rijndael = type { i8, i32, [16 x i8], [15 x [4 x [4 x i8]]] }
%class.Array = type { ptr, i64, i64, i64 }
%struct.QuickOpenItem = type { ptr, i64, i64, ptr }

; Function Attrs: mustprogress nounwind uwtable
define void @_ZN9QuickOpen5CloseEv(ptr noundef nonnull align 8 dereferenceable(2673) %0) #2 align 2 {
  %2 = alloca ptr, align 8
  %3 = alloca ptr, align 8
  %4 = alloca ptr, align 8
  store ptr %0, ptr %2, align 8
  %5 = load ptr, ptr %2, align 8
  %6 = getelementptr inbounds %class.QuickOpen, ptr %5, i32 0, i32 3
  %7 = load ptr, ptr %6, align 8
  store ptr %7, ptr %3, align 8
  br label %8

8:                                                ; preds = %24, %1
  %9 = load ptr, ptr %3, align 8
  %10 = icmp ne ptr %9, null
  br i1 %10, label %11, label %26

11:                                               ; preds = %8
  %12 = load ptr, ptr %3, align 8
  %13 = getelementptr inbounds %struct.QuickOpenItem, ptr %12, i32 0, i32 3
  %14 = load ptr, ptr %13, align 8
  store ptr %14, ptr %4, align 8
  %15 = load ptr, ptr %3, align 8
  %16 = getelementptr inbounds %struct.QuickOpenItem, ptr %15, i32 0, i32 0
  %17 = load ptr, ptr %16, align 8
  %18 = icmp eq ptr %17, null
  br i1 %18, label %20, label %19

19:                                               ; preds = %11
  call void @_ZdaPv(ptr noundef %17) #12
  br label %20

20:                                               ; preds = %19, %11
  %21 = load ptr, ptr %3, align 8
  %22 = icmp eq ptr %21, null
  br i1 %22, label %24, label %23

23:                                               ; preds = %20
  call void @_ZdlPv(ptr noundef %21) #12
  br label %24

24:                                               ; preds = %23, %20
  %25 = load ptr, ptr %4, align 8
  store ptr %25, ptr %3, align 8
  br label %8, !llvm.loop !4

26:                                               ; preds = %8
  ret void
}

; Function Attrs: mustprogress uwtable
define void @_ZN9QuickOpen4InitEP7Archiveb(ptr noundef nonnull align 8 dereferenceable(2673) %0, ptr noundef %1, i1 noundef zeroext %2) #0 align 2 {
  %4 = alloca ptr, align 8
  %5 = alloca ptr, align 8
  %6 = alloca i8, align 1
  store ptr %0, ptr %4, align 8
  store ptr %1, ptr %5, align 8
  %7 = zext i1 %2 to i8
  store i8 %7, ptr %6, align 1
  %8 = load ptr, ptr %4, align 8
  %9 = load ptr, ptr %5, align 8
  %10 = icmp ne ptr %9, null
  br i1 %10, label %11, label %12

11:                                               ; preds = %3
  call void @_ZN9QuickOpen5CloseEv(ptr noundef nonnull align 8 dereferenceable(2673) %8)
  br label %12

12:                                               ; preds = %11, %3
  %13 = load ptr, ptr %5, align 8
  %14 = getelementptr inbounds %class.QuickOpen, ptr %8, i32 0, i32 0
  store ptr %13, ptr %14, align 8
  %15 = load i8, ptr %6, align 1
  %16 = trunc i8 %15 to i1
  %17 = getelementptr inbounds %class.QuickOpen, ptr %8, i32 0, i32 1
  %18 = zext i1 %16 to i8
  store i8 %18, ptr %17, align 8
  %19 = getelementptr inbounds %class.QuickOpen, ptr %8, i32 0, i32 3
  store ptr null, ptr %19, align 8
  %20 = getelementptr inbounds %class.QuickOpen, ptr %8, i32 0, i32 4
  store ptr null, ptr %20, align 8
  %21 = getelementptr inbounds %class.QuickOpen, ptr %8, i32 0, i32 5
  %22 = load ptr, ptr %21, align 8
  %23 = icmp eq ptr %22, null
  br i1 %23, label %24, label %27

24:                                               ; preds = %12
  %25 = call noalias noundef nonnull ptr @_Znam(i64 noundef 65536) #11
  %26 = getelementptr inbounds %class.QuickOpen, ptr %8, i32 0, i32 5
  store ptr %25, ptr %26, align 8
  br label %27

27:                                               ; preds = %24, %12
  %28 = getelementptr inbounds %class.QuickOpen, ptr %8, i32 0, i32 6
  store i64 0, ptr %28, align 8
  %29 = getelementptr inbounds %class.QuickOpen, ptr %8, i32 0, i32 8
  store i8 0, ptr %29, align 8
  ret void
}