; Function Attrs: mustprogress uwtable
define void @_ZN9QuickOpen4InitEP7Archiveb(ptr nocapture noundef nonnull align 8 dereferenceable(2673) %0, ptr noundef %1, i1 noundef zeroext %2) local_unnamed_addr #0 align 2 {
  %4 = zext i1 %2 to i8
  %.not = icmp eq ptr %1, null
  %5 = getelementptr inbounds i8, ptr %0, i64 16
  %6 = load ptr, ptr %5, align 8
  %.not7.i = icmp eq ptr %6, null
  %or.cond = select i1 %.not, i1 true, i1 %.not7.i
  br i1 %or.cond, label %_ZN9QuickOpen5CloseEv.exit, label %.lr.ph.i

.lr.ph.i:                                         ; preds = %3, %12
  %.08.i = phi ptr [ %8, %12 ], [ %6, %3 ]
  %7 = getelementptr inbounds i8, ptr %.08.i, i64 24
  %8 = load ptr, ptr %7, align 8
  %9 = load ptr, ptr %.08.i, align 8
  %10 = icmp eq ptr %9, null
  br i1 %10, label %12, label %11

11:                                               ; preds = %.lr.ph.i
  tail call void @_ZdaPv(ptr noundef nonnull %9) #16
  br label %12

12:                                               ; preds = %11, %.lr.ph.i
  tail call void @_ZdlPv(ptr noundef nonnull %.08.i) #16
  %.not.i = icmp eq ptr %8, null
  br i1 %.not.i, label %_ZN9QuickOpen5CloseEv.exit, label %.lr.ph.i, !llvm.loop !4

_ZN9QuickOpen5CloseEv.exit:                       ; preds = %12, %3
  store ptr %1, ptr %0, align 8
  %13 = getelementptr inbounds i8, ptr %0, i64 8
  store i8 %4, ptr %13, align 8
  %14 = getelementptr inbounds i8, ptr %0, i64 32
  tail call void @llvm.memset.p0.i64(ptr noundef nonnull align 8 dereferenceable(16) %5, i8 0, i64 16, i1 false)
  %15 = load ptr, ptr %14, align 8
  %16 = icmp eq ptr %15, null
  br i1 %16, label %17, label %19

17:                                               ; preds = %_ZN9QuickOpen5CloseEv.exit
  %18 = tail call noalias noundef nonnull dereferenceable(65536) ptr @_Znam(i64 noundef 65536) #14
  store ptr %18, ptr %14, align 8
  br label %19

19:                                               ; preds = %17, %_ZN9QuickOpen5CloseEv.exit
  %20 = getelementptr inbounds i8, ptr %0, i64 40
  store i64 0, ptr %20, align 8
  %21 = getelementptr inbounds i8, ptr %0, i64 2568
  store i8 0, ptr %21, align 8
  ret void
}